; Function Attrs: mustprogress nounwind uwtable
define hidden noundef i32 @_ZN8JvmtiEnv12GetBytecodesEP6MethodPiPPh(ptr nocapture noundef nonnull readnone align 8 dereferenceable(460) %0, ptr noundef %1, ptr nocapture noundef writeonly %2, ptr nocapture noundef %3) local_unnamed_addr #0 align 2 {
  %5 = alloca %class.methodHandle, align 8
  %6 = icmp eq ptr %1, null
  br i1 %6, label %46, label %7

7:                                                ; preds = %4
  %8 = tail call align 8 ptr @llvm.threadlocal.address.p0(ptr align 8 @_ZN6Thread12_thr_currentE)
  %9 = load ptr, ptr %8, align 8
  store ptr %1, ptr %5, align 8
  %10 = getelementptr inbounds i8, ptr %5, i64 8
  store ptr %9, ptr %10, align 8
  %11 = getelementptr inbounds i8, ptr %9, i64 816
  %12 = load ptr, ptr %11, align 8
  %13 = load i32, ptr %12, align 8
  %14 = getelementptr inbounds i8, ptr %12, i64 4
  %15 = load i32, ptr %14, align 4
  %16 = icmp eq i32 %13, %15
  br i1 %16, label %17, label %_ZN12methodHandleC2EP6ThreadP6Method.exit

17:                                               ; preds = %7
  %18 = add nsw i32 %13, 1
  %19 = icmp sgt i32 %13, -1
  %20 = xor i32 %13, -2147483648
  %21 = and i32 %20, %18
  %22 = icmp eq i32 %21, 0
  %23 = and i1 %19, %22
  %24 = tail call range(i32 0, 33) i32 @llvm.ctlz.i32(i32 %18, i1 true)
  %25 = sub nuw nsw i32 32, %24
  %26 = shl nuw i32 1, %25
  %.0.i.i.i.i.i.i = select i1 %23, i32 %18, i32 %26
  tail call void @_ZN26GrowableArrayWithAllocatorIP8Metadata13GrowableArrayIS1_EE9expand_toEi(ptr noundef nonnull align 8 dereferenceable(16) %12, i32 noundef %.0.i.i.i.i.i.i)
  %.pre.i.i.i = load i32, ptr %12, align 8
  br label %_ZN12methodHandleC2EP6ThreadP6Method.exit

_ZN12methodHandleC2EP6ThreadP6Method.exit:        ; preds = %7, %17
  %27 = phi i32 [ %.pre.i.i.i, %17 ], [ %13, %7 ]
  %28 = add nsw i32 %27, 1
  store i32 %28, ptr %12, align 8
  %29 = getelementptr inbounds i8, ptr %12, i64 8
  %30 = load ptr, ptr %29, align 8
  %31 = sext i32 %27 to i64
  %32 = getelementptr inbounds ptr, ptr %30, i64 %31
  store ptr %1, ptr %32, align 8
  %33 = getelementptr inbounds i8, ptr %1, i64 8
  %34 = load ptr, ptr %33, align 8
  %35 = getelementptr inbounds i8, ptr %34, i64 34
  %36 = load i16, ptr %35, align 2
  %37 = icmp eq i16 %36, 0
  br i1 %37, label %38, label %39

38:                                               ; preds = %_ZN12methodHandleC2EP6ThreadP6Method.exit
  store ptr null, ptr %3, align 8
  br label %43

39:                                               ; preds = %_ZN12methodHandleC2EP6ThreadP6Method.exit
  %40 = zext i16 %36 to i64
  %41 = tail call noundef ptr @_ZN2os6mallocEm8MEMFLAGS(i64 noundef %40, i8 noundef zeroext 9) #17
  store ptr %41, ptr %3, align 8
  %42 = icmp eq ptr %41, null
  br i1 %42, label %_ZN12JvmtiEnvBase8allocateElPPh.exit, label %43

43:                                               ; preds = %38, %39
  %44 = zext i16 %36 to i32
  store i32 %44, ptr %2, align 4
  %45 = load ptr, ptr %3, align 8
  call void @_ZN27JvmtiClassFileReconstituter14copy_bytecodesERK12methodHandlePh(ptr noundef nonnull align 8 dereferenceable(16) %5, ptr noundef %45) #17
  br label %_ZN12JvmtiEnvBase8allocateElPPh.exit

_ZN12JvmtiEnvBase8allocateElPPh.exit:             ; preds = %39, %43
  %.0 = phi i32 [ 0, %43 ], [ 110, %39 ]
  call void @_ZN12methodHandleD1Ev(ptr noundef nonnull align 8 dereferenceable(16) %5) #17
  br label %46

46:                                               ; preds = %4, %_ZN12JvmtiEnvBase8allocateElPPh.exit
  %.1 = phi i32 [ %.0, %_ZN12JvmtiEnvBase8allocateElPPh.exit ], [ 23, %4 ]
  ret i32 %.1
}